target datalayout = "e-m:e-p270:32:32-p271:32:32-p272:64:64-i64:64-i128:128-f80:128-n8:16:32:64-S128"
target triple = "x86_64-pc-linux-gnu"

%"class.cvc5::internal::WarningC" = type { %"class.std::set", ptr }
%"class.std::set" = type { %"class.std::_Rb_tree" }
%"class.std::_Rb_tree" = type { %"struct.std::_Rb_tree<std::pair<std::__cxx11::basic_string<char>, unsigned long>, std::pair<std::__cxx11::basic_string<char>, unsigned long>, std::_Identity<std::pair<std::__cxx11::basic_string<char>, unsigned long>>, std::less<std::pair<std::__cxx11::basic_string<char>, unsigned long>>>::_Rb_tree_impl" }
%"struct.std::_Rb_tree<std::pair<std::__cxx11::basic_string<char>, unsigned long>, std::pair<std::__cxx11::basic_string<char>, unsigned long>, std::_Identity<std::pair<std::__cxx11::basic_string<char>, unsigned long>>, std::less<std::pair<std::__cxx11::basic_string<char>, unsigned long>>>::_Rb_tree_impl" = type { [8 x i8], %"struct.std::_Rb_tree_header" }
%"struct.std::_Rb_tree_header" = type { %"struct.std::_Rb_tree_node_base", i64 }
%"struct.std::_Rb_tree_node_base" = type { i32, ptr, ptr, ptr }
%"class.cvc5::internal::TraceC" = type { ptr, %"class.std::vector" }
%"class.std::vector" = type { %"struct.std::_Vector_base" }
%"struct.std::_Vector_base" = type { %"struct.std::_Vector_base<std::__cxx11::basic_string<char>, std::allocator<std::__cxx11::basic_string<char>>>::_Vector_impl" }
%"struct.std::_Vector_base<std::__cxx11::basic_string<char>, std::allocator<std::__cxx11::basic_string<char>>>::_Vector_impl" = type { %"struct.std::_Vector_base<std::__cxx11::basic_string<char>, std::allocator<std::__cxx11::basic_string<char>>>::_Vector_impl_data" }
%"struct.std::_Vector_base<std::__cxx11::basic_string<char>, std::allocator<std::__cxx11::basic_string<char>>>::_Vector_impl_data" = type { ptr, ptr, ptr }
%"class.std::basic_ostream" = type { ptr, %"class.std::basic_ios" }
%"class.std::basic_ios" = type { %"class.std::ios_base", ptr, i8, i8, ptr, ptr, ptr, ptr }
%"class.std::ios_base" = type { ptr, i64, i64, i32, i32, i32, ptr, %"struct.std::ios_base::_Words", [8 x %"struct.std::ios_base::_Words"], i32, ptr, %"class.std::locale" }
%"struct.std::ios_base::_Words" = type { ptr, i64 }
%"class.std::locale" = type { ptr }

@_ZN4cvc58internal14WarningChannelE = external global %"class.cvc5::internal::WarningC", align 8
@_ZN4cvc58internal12TraceChannelE = external global %"class.cvc5::internal::TraceC", align 8
@_ZN4cvc58internal7null_osE = external global %"class.std::basic_ostream", align 8
@_ZSt4cerr = external global %"class.std::basic_ostream", align 8

; Function Attrs: mustprogress nounwind uwtable
define linkonce_odr hidden noundef nonnull align 8 dereferenceable(8) ptr @_ZN4cvc58internal8WarningC9setStreamEPSo(ptr noundef nonnull align 8 dereferenceable(56) %0, ptr noundef %1) #4 comdat align 2 {
  %3 = alloca ptr, align 8
  %4 = alloca ptr, align 8
  store ptr %0, ptr %3, align 8, !tbaa !16
  store ptr %1, ptr %4, align 8, !tbaa !33
  %5 = load ptr, ptr %3, align 8
  %6 = load ptr, ptr %4, align 8, !tbaa !33
  %7 = getelementptr inbounds nuw %"class.cvc5::internal::WarningC", ptr %5, i32 0, i32 1
  store ptr %6, ptr %7, align 8, !tbaa !18
  %8 = getelementptr inbounds nuw %"class.cvc5::internal::WarningC", ptr %5, i32 0, i32 1
  %9 = load ptr, ptr %8, align 8, !tbaa !18
  ret ptr %9
}

; Function Attrs: mustprogress nounwind uwtable
define linkonce_odr hidden noundef nonnull align 8 dereferenceable(8) ptr @_ZN4cvc58internal6TraceC9setStreamEPSo(ptr noundef nonnull align 8 dereferenceable(32) %0, ptr noundef %1) #4 comdat align 2 {
  %3 = alloca ptr, align 8
  %4 = alloca ptr, align 8
  store ptr %0, ptr %3, align 8, !tbaa !36
  store ptr %1, ptr %4, align 8, !tbaa !33
  %5 = load ptr, ptr %3, align 8
  %6 = load ptr, ptr %4, align 8, !tbaa !33
  %7 = getelementptr inbounds nuw %"class.cvc5::internal::TraceC", ptr %5, i32 0, i32 0
  store ptr %6, ptr %7, align 8, !tbaa !38
  %8 = getelementptr inbounds nuw %"class.cvc5::internal::TraceC", ptr %5, i32 0, i32 0
  %9 = load ptr, ptr %8, align 8, !tbaa !38
  ret ptr %9
}

; Function Attrs: mustprogress uwtable
define hidden void @_ZN4cvc58internal7options14OptionsHandler12setVerbosityERKNSt7__cxx1112basic_stringIcSt11char_traitsIcESaIcEEEi(ptr noundef nonnull align 8 dereferenceable(8) %0, ptr noundef nonnull align 8 dereferenceable(32) %1, i32 noundef %2) #5 align 2 {
  %4 = alloca ptr, align 8
  %5 = alloca ptr, align 8
  %6 = alloca i32, align 4
  store ptr %0, ptr %4, align 8, !tbaa !3
  store ptr %1, ptr %5, align 8, !tbaa !12
  store i32 %2, ptr %6, align 4, !tbaa !252
  %7 = call noundef zeroext i1 @_ZN4cvc58internal13Configuration14isMuzzledBuildEv()
  br i1 %7, label %8, label %11

8:                                                ; preds = %3
  %9 = call noundef nonnull align 8 dereferenceable(8) ptr @_ZN4cvc58internal6TraceC9setStreamEPSo(ptr noundef nonnull align 8 dereferenceable(32) @_ZN4cvc58internal12TraceChannelE, ptr noundef @_ZN4cvc58internal7null_osE)
  %10 = call noundef nonnull align 8 dereferenceable(8) ptr @_ZN4cvc58internal8WarningC9setStreamEPSo(ptr noundef nonnull align 8 dereferenceable(56) @_ZN4cvc58internal14WarningChannelE, ptr noundef @_ZN4cvc58internal7null_osE)
  br label %19

11:                                               ; preds = %3
  %12 = load i32, ptr %6, align 4, !tbaa !252
  %13 = icmp slt i32 %12, 0
  br i1 %13, label %14, label %16

14:                                               ; preds = %11
  %15 = call noundef nonnull align 8 dereferenceable(8) ptr @_ZN4cvc58internal8WarningC9setStreamEPSo(ptr noundef nonnull align 8 dereferenceable(56) @_ZN4cvc58internal14WarningChannelE, ptr noundef @_ZN4cvc58internal7null_osE)
  br label %18

16:                                               ; preds = %11
  %17 = call noundef nonnull align 8 dereferenceable(8) ptr @_ZN4cvc58internal8WarningC9setStreamEPSo(ptr noundef nonnull align 8 dereferenceable(56) @_ZN4cvc58internal14WarningChannelE, ptr noundef @_ZSt4cerr)
  br label %18

18:                                               ; preds = %16, %14
  br label %19

19:                                               ; preds = %18, %8
  ret void
}