; Function Attrs: mustprogress uwtable
define hidden void @_ZN4cvc58internal7options14OptionsHandler12setVerbosityERKNSt7__cxx1112basic_stringIcSt11char_traitsIcESaIcEEEi(ptr noundef nonnull readnone align 8 captures(none) dereferenceable(8) %0, ptr noundef nonnull readnone align 8 captures(none) dereferenceable(32) %1, i32 noundef %2) local_unnamed_addr #5 align 2 {
  %4 = tail call noundef zeroext i1 @_ZN4cvc58internal13Configuration14isMuzzledBuildEv()
  br i1 %4, label %5, label %6

5:                                                ; preds = %3
  store ptr @_ZN4cvc58internal7null_osE, ptr @_ZN4cvc58internal12TraceChannelE, align 8, !tbaa !31
  br label %8

6:                                                ; preds = %3
  %7 = icmp slt i32 %2, 0
  %_ZN4cvc58internal7null_osE._ZSt4cerr = select i1 %7, ptr @_ZN4cvc58internal7null_osE, ptr @_ZSt4cerr
  br label %8

8:                                                ; preds = %6, %5
  %_ZN4cvc58internal7null_osE.sink = phi ptr [ @_ZN4cvc58internal7null_osE, %5 ], [ %_ZN4cvc58internal7null_osE._ZSt4cerr, %6 ]
  store ptr %_ZN4cvc58internal7null_osE.sink, ptr getelementptr inbounds nuw (i8, ptr @_ZN4cvc58internal14WarningChannelE, i64 48), align 8, !tbaa !9
  ret void
}